target datalayout = "e-m:e-p270:32:32-p271:32:32-p272:64:64-i64:64-i128:128-f80:128-n8:16:32:64-S128"
target triple = "x86_64-pc-linux-gnu"

; Function Attrs: nounwind uwtable
define internal ptr @stbi__resample_row_v_2(ptr noundef %0, ptr noundef %1, ptr noundef %2, i32 noundef %3, i32 noundef %4) #0 {
  %6 = alloca ptr, align 8
  %7 = alloca ptr, align 8
  %8 = alloca ptr, align 8
  %9 = alloca i32, align 4
  %10 = alloca i32, align 4
  %11 = alloca i32, align 4
  store ptr %0, ptr %6, align 8
  store ptr %1, ptr %7, align 8
  store ptr %2, ptr %8, align 8
  store i32 %3, ptr %9, align 4
  store i32 %4, ptr %10, align 4
  call void @llvm.lifetime.start.p0(i64 4, ptr %11) #19
  store i32 0, ptr %11, align 4
  br label %12

12:                                               ; preds = %38, %5
  %13 = load i32, ptr %11, align 4
  %14 = load i32, ptr %9, align 4
  %15 = icmp slt i32 %13, %14
  br i1 %15, label %16, label %41

16:                                               ; preds = %12
  %17 = load ptr, ptr %7, align 8
  %18 = load i32, ptr %11, align 4
  %19 = sext i32 %18 to i64
  %20 = getelementptr inbounds i8, ptr %17, i64 %19
  %21 = load i8, ptr %20, align 1
  %22 = zext i8 %21 to i32
  %23 = mul nsw i32 3, %22
  %24 = load ptr, ptr %8, align 8
  %25 = load i32, ptr %11, align 4
  %26 = sext i32 %25 to i64
  %27 = getelementptr inbounds i8, ptr %24, i64 %26
  %28 = load i8, ptr %27, align 1
  %29 = zext i8 %28 to i32
  %30 = add nsw i32 %23, %29
  %31 = add nsw i32 %30, 2
  %32 = ashr i32 %31, 2
  %33 = trunc i32 %32 to i8
  %34 = load ptr, ptr %6, align 8
  %35 = load i32, ptr %11, align 4
  %36 = sext i32 %35 to i64
  %37 = getelementptr inbounds i8, ptr %34, i64 %36
  store i8 %33, ptr %37, align 1
  br label %38

38:                                               ; preds = %16
  %39 = load i32, ptr %11, align 4
  %40 = add nsw i32 %39, 1
  store i32 %40, ptr %11, align 4
  br label %12

41:                                               ; preds = %12
  %42 = load ptr, ptr %6, align 8
  call void @llvm.lifetime.end.p0(i64 4, ptr %11) #19
  ret ptr %42
}